target datalayout = "e-m:e-p270:32:32-p271:32:32-p272:64:64-i64:64-i128:128-f80:128-n8:16:32:64-S128"
target triple = "x86_64-pc-linux-gnu"

%class.BigUnsignedInABase = type <{ %class.NumberlikeArray, i16, [6 x i8] }>
%class.NumberlikeArray = type { i32, i32, ptr }
%class.BigUnsigned = type { %class.NumberlikeArray.0 }
%class.NumberlikeArray.0 = type { i32, i32, ptr }

; Function Attrs: mustprogress nounwind uwtable
define linkonce_odr void @_ZN15NumberlikeArrayImEC2Ev(ptr noundef nonnull align 8 dereferenceable(16) %0) unnamed_addr #2 comdat align 2 {
  %2 = alloca ptr, align 8
  store ptr %0, ptr %2, align 8, !tbaa !34
  %3 = load ptr, ptr %2, align 8
  %4 = getelementptr inbounds nuw %class.NumberlikeArray.0, ptr %3, i32 0, i32 0
  store i32 0, ptr %4, align 8, !tbaa !54
  %5 = getelementptr inbounds nuw %class.NumberlikeArray.0, ptr %3, i32 0, i32 1
  store i32 0, ptr %5, align 4, !tbaa !36
  %6 = getelementptr inbounds nuw %class.NumberlikeArray.0, ptr %3, i32 0, i32 2
  store ptr null, ptr %6, align 8, !tbaa !40
  ret void
}

; Function Attrs: mustprogress nounwind uwtable
define linkonce_odr void @_ZN15NumberlikeArrayImED2Ev(ptr noundef nonnull align 8 dereferenceable(16) %0) unnamed_addr #2 comdat align 2 {
  %2 = alloca ptr, align 8
  store ptr %0, ptr %2, align 8, !tbaa !34
  %3 = load ptr, ptr %2, align 8
  %4 = getelementptr inbounds nuw %class.NumberlikeArray.0, ptr %3, i32 0, i32 2
  %5 = load ptr, ptr %4, align 8, !tbaa !40
  %6 = icmp eq ptr %5, null
  br i1 %6, label %8, label %7

7:                                                ; preds = %1
  call void @_ZdaPv(ptr noundef %5) #17
  br label %8

8:                                                ; preds = %7, %1
  ret void
}

; Function Attrs: mustprogress uwtable
define linkonce_odr void @_ZN11BigUnsignedC2Ev(ptr noundef nonnull align 8 dereferenceable(16) %0) unnamed_addr #0 comdat align 2 {
  %2 = alloca ptr, align 8
  store ptr %0, ptr %2, align 8, !tbaa !31
  %3 = load ptr, ptr %2, align 8
  call void @_ZN15NumberlikeArrayImEC2Ev(ptr noundef nonnull align 8 dereferenceable(16) %3)
  ret void
}

; Function Attrs: mustprogress uwtable
define void @_ZNK18BigUnsignedInABasecv11BigUnsignedEv(ptr dead_on_unwind noalias writable sret(%class.BigUnsigned) align 8 %0, ptr noundef nonnull align 8 dereferenceable(18) %1) #0 align 2 personality ptr @__gxx_personality_v0 {
  %3 = alloca ptr, align 8
  %4 = alloca ptr, align 8
  %5 = alloca i1, align 1
  %6 = alloca %class.BigUnsigned, align 8
  %7 = alloca ptr, align 8
  %8 = alloca i32, align 4
  %9 = alloca %class.BigUnsigned, align 8
  %10 = alloca i32, align 4
  %11 = alloca %class.BigUnsigned, align 8
  store ptr %0, ptr %3, align 8
  store ptr %1, ptr %4, align 8, !tbaa !6
  %12 = load ptr, ptr %4, align 8
  store i1 false, ptr %5, align 1
  call void @_ZN11BigUnsignedC1Ei(ptr noundef nonnull align 8 dereferenceable(16) %0, i32 noundef 0)
  call void @llvm.lifetime.start.p0(i64 16, ptr %6) #14
  %13 = getelementptr inbounds nuw %class.BigUnsignedInABase, ptr %12, i32 0, i32 1
  %14 = load i16, ptr %13, align 8, !tbaa !17
  invoke void @_ZN11BigUnsignedC1Et(ptr noundef nonnull align 8 dereferenceable(16) %6, i16 noundef zeroext %14)
          to label %15 unwind label %34

15:                                               ; preds = %2
  call void @llvm.lifetime.start.p0(i64 16, ptr %9) #14
  invoke void @_ZN11BigUnsignedC2Ev(ptr noundef nonnull align 8 dereferenceable(16) %9)
          to label %16 unwind label %38

16:                                               ; preds = %15
  call void @llvm.lifetime.start.p0(i64 4, ptr %10) #14
  %17 = getelementptr inbounds nuw %class.NumberlikeArray, ptr %12, i32 0, i32 1
  %18 = load i32, ptr %17, align 4, !tbaa !28
  store i32 %18, ptr %10, align 4, !tbaa !13
  br label %19

19:                                               ; preds = %33, %16
  %20 = load i32, ptr %10, align 4, !tbaa !13
  %21 = icmp ugt i32 %20, 0
  br i1 %21, label %22, label %55

22:                                               ; preds = %19
  %23 = load i32, ptr %10, align 4, !tbaa !13
  %24 = add i32 %23, -1
  store i32 %24, ptr %10, align 4, !tbaa !13
  invoke void @_ZN11BigUnsigned8multiplyERKS_S1_(ptr noundef nonnull align 8 dereferenceable(16) %9, ptr noundef nonnull align 8 dereferenceable(16) %0, ptr noundef nonnull align 8 dereferenceable(16) %6)
          to label %25 unwind label %42

25:                                               ; preds = %22
  call void @llvm.lifetime.start.p0(i64 16, ptr %11) #14
  %26 = getelementptr inbounds nuw %class.NumberlikeArray, ptr %12, i32 0, i32 2
  %27 = load ptr, ptr %26, align 8, !tbaa !22
  %28 = load i32, ptr %10, align 4, !tbaa !13
  %29 = zext i32 %28 to i64
  %30 = getelementptr inbounds nuw i16, ptr %27, i64 %29
  %31 = load i16, ptr %30, align 2, !tbaa !15
  invoke void @_ZN11BigUnsignedC1Et(ptr noundef nonnull align 8 dereferenceable(16) %11, i16 noundef zeroext %31)
          to label %32 unwind label %46

32:                                               ; preds = %25
  invoke void @_ZN11BigUnsigned3addERKS_S1_(ptr noundef nonnull align 8 dereferenceable(16) %0, ptr noundef nonnull align 8 dereferenceable(16) %9, ptr noundef nonnull align 8 dereferenceable(16) %11)
          to label %33 unwind label %50

33:                                               ; preds = %32
  call void @_ZN15NumberlikeArrayImED2Ev(ptr noundef nonnull align 8 dereferenceable(16) %11) #14
  call void @llvm.lifetime.end.p0(i64 16, ptr %11) #14
  br label %19, !llvm.loop !41

34:                                               ; preds = %2
  %35 = landingpad { ptr, i32 }
          cleanup
  %36 = extractvalue { ptr, i32 } %35, 0
  store ptr %36, ptr %7, align 8
  %37 = extractvalue { ptr, i32 } %35, 1
  store i32 %37, ptr %8, align 4
  br label %59

38:                                               ; preds = %15
  %39 = landingpad { ptr, i32 }
          cleanup
  %40 = extractvalue { ptr, i32 } %39, 0
  store ptr %40, ptr %7, align 8
  %41 = extractvalue { ptr, i32 } %39, 1
  store i32 %41, ptr %8, align 4
  br label %58

42:                                               ; preds = %22
  %43 = landingpad { ptr, i32 }
          cleanup
  %44 = extractvalue { ptr, i32 } %43, 0
  store ptr %44, ptr %7, align 8
  %45 = extractvalue { ptr, i32 } %43, 1
  store i32 %45, ptr %8, align 4
  br label %57

46:                                               ; preds = %25
  %47 = landingpad { ptr, i32 }
          cleanup
  %48 = extractvalue { ptr, i32 } %47, 0
  store ptr %48, ptr %7, align 8
  %49 = extractvalue { ptr, i32 } %47, 1
  store i32 %49, ptr %8, align 4
  br label %54

50:                                               ; preds = %32
  %51 = landingpad { ptr, i32 }
          cleanup
  %52 = extractvalue { ptr, i32 } %51, 0
  store ptr %52, ptr %7, align 8
  %53 = extractvalue { ptr, i32 } %51, 1
  store i32 %53, ptr %8, align 4
  call void @_ZN15NumberlikeArrayImED2Ev(ptr noundef nonnull align 8 dereferenceable(16) %11) #14
  br label %54

54:                                               ; preds = %50, %46
  call void @llvm.lifetime.end.p0(i64 16, ptr %11) #14
  br label %57

55:                                               ; preds = %19
  store i1 true, ptr %5, align 1
  call void @llvm.lifetime.end.p0(i64 4, ptr %10) #14
  call void @_ZN15NumberlikeArrayImED2Ev(ptr noundef nonnull align 8 dereferenceable(16) %9) #14
  call void @llvm.lifetime.end.p0(i64 16, ptr %9) #14
  call void @_ZN15NumberlikeArrayImED2Ev(ptr noundef nonnull align 8 dereferenceable(16) %6) #14
  call void @llvm.lifetime.end.p0(i64 16, ptr %6) #14
  %56 = load i1, ptr %5, align 1
  br i1 %56, label %61, label %60

57:                                               ; preds = %54, %42
  call void @llvm.lifetime.end.p0(i64 4, ptr %10) #14
  call void @_ZN15NumberlikeArrayImED2Ev(ptr noundef nonnull align 8 dereferenceable(16) %9) #14
  br label %58

58:                                               ; preds = %57, %38
  call void @llvm.lifetime.end.p0(i64 16, ptr %9) #14
  call void @_ZN15NumberlikeArrayImED2Ev(ptr noundef nonnull align 8 dereferenceable(16) %6) #14
  br label %59

59:                                               ; preds = %58, %34
  call void @llvm.lifetime.end.p0(i64 16, ptr %6) #14
  call void @_ZN15NumberlikeArrayImED2Ev(ptr noundef nonnull align 8 dereferenceable(16) %0) #14
  br label %62

60:                                               ; preds = %55
  call void @_ZN15NumberlikeArrayImED2Ev(ptr noundef nonnull align 8 dereferenceable(16) %0) #14
  br label %61

61:                                               ; preds = %60, %55
  ret void

62:                                               ; preds = %59
  %63 = load ptr, ptr %7, align 8
  %64 = load i32, ptr %8, align 4
  %65 = insertvalue { ptr, i32 } poison, ptr %63, 0
  %66 = insertvalue { ptr, i32 } %65, i32 %64, 1
  resume { ptr, i32 } %66
}