; Function Attrs: mustprogress uwtable
define void @_ZNK18BigUnsignedInABasecv11BigUnsignedEv(ptr dead_on_unwind noalias nonnull writable sret(%class.BigUnsigned) align 8 %0, ptr noundef nonnull readonly align 8 captures(none) dereferenceable(18) %1) local_unnamed_addr #0 align 2 personality ptr @__gxx_personality_v0 {
  %3 = alloca %class.BigUnsigned, align 8
  %4 = alloca %class.BigUnsigned, align 8
  %5 = alloca %class.BigUnsigned, align 8
  tail call void @_ZN11BigUnsignedC1Ei(ptr noundef nonnull align 8 dereferenceable(16) %0, i32 noundef 0)
  call void @llvm.lifetime.start.p0(i64 16, ptr nonnull %3) #11
  %6 = getelementptr inbounds nuw i8, ptr %1, i64 16
  %7 = load i16, ptr %6, align 8, !tbaa !15
  invoke void @_ZN11BigUnsignedC1Et(ptr noundef nonnull align 8 dereferenceable(16) %3, i16 noundef zeroext %7)
          to label %8 unwind label %25

8:                                                ; preds = %2
  call void @llvm.lifetime.start.p0(i64 16, ptr nonnull %4) #11
  call void @llvm.memset.p0.i64(ptr noundef nonnull align 8 dereferenceable(16) %4, i8 0, i64 16, i1 false)
  %9 = getelementptr inbounds nuw i8, ptr %1, i64 4
  %10 = load i32, ptr %9, align 4, !tbaa !13
  %.not21 = icmp eq i32 %10, 0
  br i1 %.not21, label %_ZN15NumberlikeArrayImED2Ev.exit16, label %.lr.ph

.lr.ph:                                           ; preds = %8
  %11 = getelementptr inbounds nuw i8, ptr %1, i64 8
  %12 = getelementptr inbounds nuw i8, ptr %5, i64 8
  %13 = zext i32 %10 to i64
  br label %14

14:                                               ; preds = %.lr.ph, %_ZN15NumberlikeArrayImED2Ev.exit
  %indvars.iv = phi i64 [ %13, %.lr.ph ], [ %15, %_ZN15NumberlikeArrayImED2Ev.exit ]
  %15 = add nsw i64 %indvars.iv, -1
  invoke void @_ZN11BigUnsigned8multiplyERKS_S1_(ptr noundef nonnull align 8 dereferenceable(16) %4, ptr noundef nonnull align 8 dereferenceable(16) %0, ptr noundef nonnull align 8 dereferenceable(16) %3)
          to label %16 unwind label %27

16:                                               ; preds = %14
  call void @llvm.lifetime.start.p0(i64 16, ptr nonnull %5) #11
  %17 = load ptr, ptr %11, align 8, !tbaa !14
  %18 = getelementptr inbounds nuw i16, ptr %17, i64 %15
  %19 = load i16, ptr %18, align 2, !tbaa !18
  invoke void @_ZN11BigUnsignedC1Et(ptr noundef nonnull align 8 dereferenceable(16) %5, i16 noundef zeroext %19)
          to label %20 unwind label %29

20:                                               ; preds = %16
  invoke void @_ZN11BigUnsigned3addERKS_S1_(ptr noundef nonnull align 8 dereferenceable(16) %0, ptr noundef nonnull align 8 dereferenceable(16) %4, ptr noundef nonnull align 8 dereferenceable(16) %5)
          to label %21 unwind label %31

21:                                               ; preds = %20
  %22 = load ptr, ptr %12, align 8, !tbaa !28
  %23 = icmp eq ptr %22, null
  br i1 %23, label %_ZN15NumberlikeArrayImED2Ev.exit, label %24

24:                                               ; preds = %21
  call void @_ZdaPv(ptr noundef nonnull %22) #13
  br label %_ZN15NumberlikeArrayImED2Ev.exit

_ZN15NumberlikeArrayImED2Ev.exit:                 ; preds = %21, %24
  call void @llvm.lifetime.end.p0(i64 16, ptr nonnull %5) #11
  %.not.wide = icmp eq i64 %15, 0
  br i1 %.not.wide, label %._crit_edge, label %14, !llvm.loop !33

25:                                               ; preds = %2
  %26 = landingpad { ptr, i32 }
          cleanup
  br label %_ZN15NumberlikeArrayImED2Ev.exit19

27:                                               ; preds = %14
  %28 = landingpad { ptr, i32 }
          cleanup
  br label %42

29:                                               ; preds = %16
  %30 = landingpad { ptr, i32 }
          cleanup
  br label %_ZN15NumberlikeArrayImED2Ev.exit15

31:                                               ; preds = %20
  %32 = landingpad { ptr, i32 }
          cleanup
  %33 = load ptr, ptr %12, align 8, !tbaa !28
  %34 = icmp eq ptr %33, null
  br i1 %34, label %_ZN15NumberlikeArrayImED2Ev.exit15, label %35

35:                                               ; preds = %31
  call void @_ZdaPv(ptr noundef nonnull %33) #13
  br label %_ZN15NumberlikeArrayImED2Ev.exit15

_ZN15NumberlikeArrayImED2Ev.exit15:               ; preds = %35, %31, %29
  %.pn = phi { ptr, i32 } [ %30, %29 ], [ %32, %31 ], [ %32, %35 ]
  call void @llvm.lifetime.end.p0(i64 16, ptr nonnull %5) #11
  br label %42

._crit_edge:                                      ; preds = %_ZN15NumberlikeArrayImED2Ev.exit
  %.phi.trans.insert = getelementptr inbounds nuw i8, ptr %4, i64 8
  %.pre = load ptr, ptr %.phi.trans.insert, align 8, !tbaa !28
  %36 = icmp eq ptr %.pre, null
  br i1 %36, label %_ZN15NumberlikeArrayImED2Ev.exit16, label %37

37:                                               ; preds = %._crit_edge
  call void @_ZdaPv(ptr noundef nonnull %.pre) #13
  br label %_ZN15NumberlikeArrayImED2Ev.exit16

_ZN15NumberlikeArrayImED2Ev.exit16:               ; preds = %8, %._crit_edge, %37
  call void @llvm.lifetime.end.p0(i64 16, ptr nonnull %4) #11
  %38 = getelementptr inbounds nuw i8, ptr %3, i64 8
  %39 = load ptr, ptr %38, align 8, !tbaa !28
  %40 = icmp eq ptr %39, null
  br i1 %40, label %_ZN15NumberlikeArrayImED2Ev.exit17, label %41

41:                                               ; preds = %_ZN15NumberlikeArrayImED2Ev.exit16
  call void @_ZdaPv(ptr noundef nonnull %39) #13
  br label %_ZN15NumberlikeArrayImED2Ev.exit17

_ZN15NumberlikeArrayImED2Ev.exit17:               ; preds = %_ZN15NumberlikeArrayImED2Ev.exit16, %41
  call void @llvm.lifetime.end.p0(i64 16, ptr nonnull %3) #11
  ret void

42:                                               ; preds = %_ZN15NumberlikeArrayImED2Ev.exit15, %27
  %.pn.pn = phi { ptr, i32 } [ %.pn, %_ZN15NumberlikeArrayImED2Ev.exit15 ], [ %28, %27 ]
  %43 = getelementptr inbounds nuw i8, ptr %4, i64 8
  %44 = load ptr, ptr %43, align 8, !tbaa !28
  %45 = icmp eq ptr %44, null
  br i1 %45, label %_ZN15NumberlikeArrayImED2Ev.exit18, label %46

46:                                               ; preds = %42
  call void @_ZdaPv(ptr noundef nonnull %44) #13
  br label %_ZN15NumberlikeArrayImED2Ev.exit18

_ZN15NumberlikeArrayImED2Ev.exit18:               ; preds = %46, %42
  call void @llvm.lifetime.end.p0(i64 16, ptr nonnull %4) #11
  %47 = getelementptr inbounds nuw i8, ptr %3, i64 8
  %48 = load ptr, ptr %47, align 8, !tbaa !28
  %49 = icmp eq ptr %48, null
  br i1 %49, label %_ZN15NumberlikeArrayImED2Ev.exit19, label %50

50:                                               ; preds = %_ZN15NumberlikeArrayImED2Ev.exit18
  call void @_ZdaPv(ptr noundef nonnull %48) #13
  br label %_ZN15NumberlikeArrayImED2Ev.exit19

_ZN15NumberlikeArrayImED2Ev.exit19:               ; preds = %50, %_ZN15NumberlikeArrayImED2Ev.exit18, %25
  %.pn.pn.pn.pn = phi { ptr, i32 } [ %26, %25 ], [ %.pn.pn, %_ZN15NumberlikeArrayImED2Ev.exit18 ], [ %.pn.pn, %50 ]
  call void @llvm.lifetime.end.p0(i64 16, ptr nonnull %3) #11
  %51 = getelementptr inbounds nuw i8, ptr %0, i64 8
  %52 = load ptr, ptr %51, align 8, !tbaa !28
  %53 = icmp eq ptr %52, null
  br i1 %53, label %_ZN15NumberlikeArrayImED2Ev.exit20, label %54

54:                                               ; preds = %_ZN15NumberlikeArrayImED2Ev.exit19
  call void @_ZdaPv(ptr noundef nonnull %52) #13
  br label %_ZN15NumberlikeArrayImED2Ev.exit20

_ZN15NumberlikeArrayImED2Ev.exit20:               ; preds = %_ZN15NumberlikeArrayImED2Ev.exit19, %54
  resume { ptr, i32 } %.pn.pn.pn.pn
}